; ModuleID = '4/1584.c'
source_filename = "4/1584.c"
target datalayout = "e-m:e-p270:32:32-p271:32:32-p272:64:64-i64:64-f80:128-n8:16:32:64-S128"
target triple = "x86_64-pc-linux-gnu"

@.str = private unnamed_addr constant [6 x i8] c"%d %d\00", align 1
@.str.1 = private unnamed_addr constant [3 x i8] c"%d\00", align 1
@.str.2 = private unnamed_addr constant [4 x i8] c"%d\0A\00", align 1

; Function Attrs: noinline nounwind uwtable
define dso_local i32 @main() #0 {
  %1 = alloca i32, align 4
  %2 = alloca i32, align 4
  %3 = alloca i32, align 4
  %4 = alloca [100 x [100 x i32]], align 16
  %5 = alloca i32, align 4
  %6 = alloca i32, align 4
  %7 = alloca i32, align 4
  %8 = alloca i32, align 4
  store i32 0, i32* %1, align 4
  store i32 0, i32* %5, align 4
  store i32 0, i32* %6, align 4
  store i32 0, i32* %7, align 4
  store i32 0, i32* %8, align 4
  %9 = call i32 (i8*, ...) @__isoc99_scanf(i8* getelementptr inbounds ([6 x i8], [6 x i8]* @.str, i64 0, i64 0), i32* %2, i32* %3)
  store i32 0, i32* %5, align 4
  br label %10

10:                                               ; preds = %31, %0
  %11 = load i32, i32* %5, align 4
  %12 = load i32, i32* %2, align 4
  %13 = icmp slt i32 %11, %12
  br i1 %13, label %14, label %34

14:                                               ; preds = %10
  store i32 0, i32* %6, align 4
  br label %15

15:                                               ; preds = %27, %14
  %16 = load i32, i32* %6, align 4
  %17 = load i32, i32* %3, align 4
  %18 = icmp slt i32 %16, %17
  br i1 %18, label %19, label %30

19:                                               ; preds = %15
  %20 = load i32, i32* %5, align 4
  %21 = sext i32 %20 to i64
  %22 = getelementptr inbounds [100 x [100 x i32]], [100 x [100 x i32]]* %4, i64 0, i64 %21
  %23 = load i32, i32* %6, align 4
  %24 = sext i32 %23 to i64
  %25 = getelementptr inbounds [100 x i32], [100 x i32]* %22, i64 0, i64 %24
  %26 = call i32 (i8*, ...) @__isoc99_scanf(i8* getelementptr inbounds ([3 x i8], [3 x i8]* @.str.1, i64 0, i64 0), i32* %25)
  br label %27

27:                                               ; preds = %19
  %28 = load i32, i32* %6, align 4
  %29 = add nsw i32 %28, 1
  store i32 %29, i32* %6, align 4
  br label %15

30:                                               ; preds = %15
  br label %31

31:                                               ; preds = %30
  %32 = load i32, i32* %5, align 4
  %33 = add nsw i32 %32, 1
  store i32 %33, i32* %5, align 4
  br label %10

34:                                               ; preds = %10
  %35 = getelementptr inbounds [100 x [100 x i32]], [100 x [100 x i32]]* %4, i64 0, i64 0
  %36 = getelementptr inbounds [100 x i32], [100 x i32]* %35, i64 0, i64 0
  %37 = load i32, i32* %36, align 16
  %38 = call i32 (i8*, ...) @printf(i8* getelementptr inbounds ([4 x i8], [4 x i8]* @.str.2, i64 0, i64 0), i32 %37)
  %39 = load i32, i32* %2, align 4
  %40 = load i32, i32* %3, align 4
  %41 = icmp sle i32 %39, %40
  br i1 %41, label %42, label %111

42:                                               ; preds = %34
  store i32 0, i32* %7, align 4
  store i32 1, i32* %8, align 4
  br label %43

43:                                               ; preds = %74, %42
  %44 = load i32, i32* %8, align 4
  %45 = load i32, i32* %3, align 4
  %46 = icmp slt i32 %44, %45
  br i1 %46, label %47, label %77

47:                                               ; preds = %43
  %48 = load i32, i32* %7, align 4
  store i32 %48, i32* %5, align 4
  %49 = load i32, i32* %8, align 4
  store i32 %49, i32* %6, align 4
  br label %50

50:                                               ; preds = %68, %47
  %51 = load i32, i32* %6, align 4
  %52 = icmp sge i32 %51, 0
  br i1 %52, label %53, label %57

53:                                               ; preds = %50
  %54 = load i32, i32* %5, align 4
  %55 = load i32, i32* %2, align 4
  %56 = icmp slt i32 %54, %55
  br label %57

57:                                               ; preds = %53, %50
  %58 = phi i1 [ false, %50 ], [ %56, %53 ]
  br i1 %58, label %59, label %73

59:                                               ; preds = %57
  %60 = load i32, i32* %5, align 4
  %61 = sext i32 %60 to i64
  %62 = getelementptr inbounds [100 x [100 x i32]], [100 x [100 x i32]]* %4, i64 0, i64 %61
  %63 = load i32, i32* %6, align 4
  %64 = sext i32 %63 to i64
  %65 = getelementptr inbounds [100 x i32], [100 x i32]* %62, i64 0, i64 %64
  %66 = load i32, i32* %65, align 4
  %67 = call i32 (i8*, ...) @printf(i8* getelementptr inbounds ([4 x i8], [4 x i8]* @.str.2, i64 0, i64 0), i32 %66)
  br label %68

68:                                               ; preds = %59
  %69 = load i32, i32* %5, align 4
  %70 = add nsw i32 %69, 1
  store i32 %70, i32* %5, align 4
  %71 = load i32, i32* %6, align 4
  %72 = add nsw i32 %71, -1
  store i32 %72, i32* %6, align 4
  br label %50

73:                                               ; preds = %57
  br label %74

74:                                               ; preds = %73
  %75 = load i32, i32* %8, align 4
  %76 = add nsw i32 %75, 1
  store i32 %76, i32* %8, align 4
  br label %43

77:                                               ; preds = %43
  store i32 1, i32* %7, align 4
  %78 = load i32, i32* %3, align 4
  %79 = sub nsw i32 %78, 1
  store i32 %79, i32* %8, align 4
  br label %80

80:                                               ; preds = %107, %77
  %81 = load i32, i32* %7, align 4
  %82 = load i32, i32* %2, align 4
  %83 = sub nsw i32 %82, 1
  %84 = icmp slt i32 %81, %83
  br i1 %84, label %85, label %110

85:                                               ; preds = %80
  %86 = load i32, i32* %7, align 4
  store i32 %86, i32* %5, align 4
  %87 = load i32, i32* %8, align 4
  store i32 %87, i32* %6, align 4
  br label %88

88:                                               ; preds = %101, %85
  %89 = load i32, i32* %5, align 4
  %90 = load i32, i32* %2, align 4
  %91 = icmp slt i32 %89, %90
  br i1 %91, label %92, label %106

92:                                               ; preds = %88
  %93 = load i32, i32* %5, align 4
  %94 = sext i32 %93 to i64
  %95 = getelementptr inbounds [100 x [100 x i32]], [100 x [100 x i32]]* %4, i64 0, i64 %94
  %96 = load i32, i32* %6, align 4
  %97 = sext i32 %96 to i64
  %98 = getelementptr inbounds [100 x i32], [100 x i32]* %95, i64 0, i64 %97
  %99 = load i32, i32* %98, align 4
  %100 = call i32 (i8*, ...) @printf(i8* getelementptr inbounds ([4 x i8], [4 x i8]* @.str.2, i64 0, i64 0), i32 %99)
  br label %101

101:                                              ; preds = %92
  %102 = load i32, i32* %5, align 4
  %103 = add nsw i32 %102, 1
  store i32 %103, i32* %5, align 4
  %104 = load i32, i32* %6, align 4
  %105 = add nsw i32 %104, -1
  store i32 %105, i32* %6, align 4
  br label %88

106:                                              ; preds = %88
  br label %107

107:                                              ; preds = %106
  %108 = load i32, i32* %7, align 4
  %109 = add nsw i32 %108, 1
  store i32 %109, i32* %7, align 4
  br label %80

110:                                              ; preds = %80
  br label %190

111:                                              ; preds = %34
  %112 = load i32, i32* %2, align 4
  %113 = load i32, i32* %3, align 4
  %114 = icmp sgt i32 %112, %113
  br i1 %114, label %115, label %189

115:                                              ; preds = %111
  store i32 0, i32* %7, align 4
  store i32 1, i32* %8, align 4
  br label %116

116:                                              ; preds = %147, %115
  %117 = load i32, i32* %8, align 4
  %118 = load i32, i32* %3, align 4
  %119 = icmp slt i32 %117, %118
  br i1 %119, label %120, label %150

120:                                              ; preds = %116
  %121 = load i32, i32* %7, align 4
  store i32 %121, i32* %5, align 4
  %122 = load i32, i32* %8, align 4
  store i32 %122, i32* %6, align 4
  br label %123

123:                                              ; preds = %141, %120
  %124 = load i32, i32* %6, align 4
  %125 = icmp sge i32 %124, 0
  br i1 %125, label %126, label %130

126:                                              ; preds = %123
  %127 = load i32, i32* %5, align 4
  %128 = load i32, i32* %2, align 4
  %129 = icmp slt i32 %127, %128
  br label %130

130:                                              ; preds = %126, %123
  %131 = phi i1 [ false, %123 ], [ %129, %126 ]
  br i1 %131, label %132, label %146

132:                                              ; preds = %130
  %133 = load i32, i32* %5, align 4
  %134 = sext i32 %133 to i64
  %135 = getelementptr inbounds [100 x [100 x i32]], [100 x [100 x i32]]* %4, i64 0, i64 %134
  %136 = load i32, i32* %6, align 4
  %137 = sext i32 %136 to i64
  %138 = getelementptr inbounds [100 x i32], [100 x i32]* %135, i64 0, i64 %137
  %139 = load i32, i32* %138, align 4
  %140 = call i32 (i8*, ...) @printf(i8* getelementptr inbounds ([4 x i8], [4 x i8]* @.str.2, i64 0, i64 0), i32 %139)
  br label %141

141:                                              ; preds = %132
  %142 = load i32, i32* %5, align 4
  %143 = add nsw i32 %142, 1
  store i32 %143, i32* %5, align 4
  %144 = load i32, i32* %6, align 4
  %145 = add nsw i32 %144, -1
  store i32 %145, i32* %6, align 4
  br label %123

146:                                              ; preds = %130
  br label %147

147:                                              ; preds = %146
  %148 = load i32, i32* %8, align 4
  %149 = add nsw i32 %148, 1
  store i32 %149, i32* %8, align 4
  br label %116

150:                                              ; preds = %116
  store i32 1, i32* %7, align 4
  %151 = load i32, i32* %3, align 4
  %152 = sub nsw i32 %151, 1
  store i32 %152, i32* %8, align 4
  br label %153

153:                                              ; preds = %185, %150
  %154 = load i32, i32* %7, align 4
  %155 = load i32, i32* %2, align 4
  %156 = sub nsw i32 %155, 1
  %157 = icmp slt i32 %154, %156
  br i1 %157, label %158, label %188

158:                                              ; preds = %153
  %159 = load i32, i32* %7, align 4
  store i32 %159, i32* %5, align 4
  %160 = load i32, i32* %8, align 4
  store i32 %160, i32* %6, align 4
  br label %161

161:                                              ; preds = %179, %158
  %162 = load i32, i32* %5, align 4
  %163 = load i32, i32* %2, align 4
  %164 = icmp slt i32 %162, %163
  br i1 %164, label %165, label %168

165:                                              ; preds = %161
  %166 = load i32, i32* %6, align 4
  %167 = icmp sge i32 %166, 0
  br label %168

168:                                              ; preds = %165, %161
  %169 = phi i1 [ false, %161 ], [ %167, %165 ]
  br i1 %169, label %170, label %184

170:                                              ; preds = %168
  %171 = load i32, i32* %5, align 4
  %172 = sext i32 %171 to i64
  %173 = getelementptr inbounds [100 x [100 x i32]], [100 x [100 x i32]]* %4, i64 0, i64 %172
  %174 = load i32, i32* %6, align 4
  %175 = sext i32 %174 to i64
  %176 = getelementptr inbounds [100 x i32], [100 x i32]* %173, i64 0, i64 %175
  %177 = load i32, i32* %176, align 4
  %178 = call i32 (i8*, ...) @printf(i8* getelementptr inbounds ([4 x i8], [4 x i8]* @.str.2, i64 0, i64 0), i32 %177)
  br label %179

179:                                              ; preds = %170
  %180 = load i32, i32* %5, align 4
  %181 = add nsw i32 %180, 1
  store i32 %181, i32* %5, align 4
  %182 = load i32, i32* %6, align 4
  %183 = add nsw i32 %182, -1
  store i32 %183, i32* %6, align 4
  br label %161

184:                                              ; preds = %168
  br label %185

185:                                              ; preds = %184
  %186 = load i32, i32* %7, align 4
  %187 = add nsw i32 %186, 1
  store i32 %187, i32* %7, align 4
  br label %153

188:                                              ; preds = %153
  br label %189

189:                                              ; preds = %188, %111
  br label %190

190:                                              ; preds = %189, %110
  %191 = load i32, i32* %2, align 4
  %192 = icmp ne i32 %191, 1
  br i1 %192, label %193, label %204

193:                                              ; preds = %190
  %194 = load i32, i32* %2, align 4
  %195 = sub nsw i32 %194, 1
  %196 = sext i32 %195 to i64
  %197 = getelementptr inbounds [100 x [100 x i32]], [100 x [100 x i32]]* %4, i64 0, i64 %196
  %198 = load i32, i32* %3, align 4
  %199 = sub nsw i32 %198, 1
  %200 = sext i32 %199 to i64
  %201 = getelementptr inbounds [100 x i32], [100 x i32]* %197, i64 0, i64 %200
  %202 = load i32, i32* %201, align 4
  %203 = call i32 (i8*, ...) @printf(i8* getelementptr inbounds ([3 x i8], [3 x i8]* @.str.1, i64 0, i64 0), i32 %202)
  br label %204

204:                                              ; preds = %193, %190
  ret i32 0
}

declare dso_local i32 @__isoc99_scanf(i8*, ...) #1

declare dso_local i32 @printf(i8*, ...) #1


!llvm.module.flags = !{!0}
!llvm.ident = !{!1}

!0 = !{i32 1, !"wchar_size", i32 4}
!1 = !{!"clang version 10.0.0-4ubuntu1 "}
